(dp1
S'admin'
p2
(dp3
S'powers'
p4
NsS'members'
p5
(lp6
S'unaffiliated/nbaztec'
p7
asS'auth'
p8
I0
ssS'mgr'
p9
(dp10
g4
(lp11
S'help'
p12
aS'flags'
p13
aS'op'
p14
aS'kick'
p15
aS'enforce'
p16
aS'ban'
p17
aS'unban'
p18
asg5
(lp19
S'unaffiliated/thatsashok'
p20
aS'unaffiliated/noobjoe'
p21
asg8
I2
ssS'others'
p22
(dp23
g4
(lp24
g12
asg5
(lp25
S'.*'
p26
asg8
I255
ssS'mod'
p27
(dp28
g4
(lp29
g12
ag13
ag14
ag15
ag16
ag17
aS'armageddon'
p30
asg5
(lp31
S'unaffiliated/hsr'
p32
aS'unaffiliated/lfc-fan/x-9923423'
p33
aS'unaffiliated/ico666'
p34
aS'unaffiliated/vy0m'
p35
asg8
I1
ss.N.(dp36
S'locate'
p37
NsS'search'
p38
NsS'url'
p39
(dp40
S'urls'
p41
(lp42
ssS'game'
p43
NsS'weather'
p44
NsS'user'
p45
(dp46
S'remind'
p47
(dp48
S'buffer'
p49
(lp50
ssS'tell'
p51
(dp52
g49
(dp53
sssS'vote'
p54
NsS'calc'
p55
NsS'roll'
p56
NsS'define'
p57
Ns.(dp58
S'quit'
p59
NsS'join'
p60
NsS'users'
p61
NsS'say'
p62
NsS'flags'
p63
NsS'ban'
p64
NsS'armageddon'
p65
(dp66
S'whitelist'
p67
(lp68
S'unaffiliated/nbaztec'
p69
aS'krow\\.me'
p70
aS'85\\.17\\.214\\.157'
p71
aS'unaffiliated/hsr'
p72
aS'204\\.176[.\\d]+'
p73
aS'59\\.178[.\\d]+'
p74
aS'unaffiliated/ico666'
p75
aS'unaffiliated/lfc-fan/x-9923423'
p76
aS'unaffiliated/thatsashok'
p77
aS'services'
p78
assS'enforce'
p79
(dp80
S'rules'
p81
(lp82
(S'^edk.*'
p83
S'kick'
p84
tp85
assg84
NsS'op'
p86
Ns.