(dp1
S'admin'
p2
(dp3
S'powers'
p4
NsS'members'
p5
(lp6
S'unaffiliated/nbaztec'
p7
asS'auth'
p8
I0
ssS'mgr'
p9
(dp10
g4
(lp11
S'help'
p12
aS'flags'
p13
aS'op'
p14
aS'kick'
p15
aS'enforce'
p16
aS'ban'
p17
aS'unban'
p18
asg5
(lp19
S'unaffiliated/thatsashok'
p20
aS'unaffiliated/noobjoe'
p21
asg8
I2
ssS'others'
p22
(dp23
g4
(lp24
g12
asg5
(lp25
S'.*'
p26
asg8
I255
ssS'mod'
p27
(dp28
g4
(lp29
g12
ag13
ag14
ag15
ag16
ag17
aS'armageddon'
p30
aS'users'
p31
aS'module'
p32
asg5
(lp33
S'unaffiliated/hsr'
p34
aS'unaffiliated/lfc-fan/x-9923423'
p35
aS'unaffiliated/ico666'
p36
aS'unaffiliated/vy0m'
p37
aS'gateway/web/freenode/ip.59.178.172.85'
p38
asg8
I1
ss.(lp39
S'*!3bb2ac55@gateway/web/freenode/ip.59.178.172.85'
p40
a.(dp41
S'locate'
p42
(dp43
S'enabled'
p44
I01
ssS'search'
p45
(dp46
g44
I01
ssS'url'
p47
(dp48
g44
I01
sS'urls'
p49
(lp50
ssS'game'
p51
(dp52
g44
I00
ssS'weather'
p53
(dp54
g44
I01
ssS'user'
p55
(dp56
S'remind'
p57
(dp58
S'buffer'
p59
(lp60
ssg44
I01
sS'tell'
p61
(dp62
g59
(dp63
sssS'vote'
p64
(dp65
g44
I01
ssS'calc'
p66
(dp67
g44
I01
ssS'roll'
p68
(dp69
g44
I01
ssS'define'
p70
(dp71
g44
I01
ss.(dp72
S'quit'
p73
NsS'join'
p74
NsS'users'
p75
NsS'module'
p76
NsS'say'
p77
NsS'flags'
p78
(dp79
g78
(dp80
S'log'
p81
I01
sS'url'
p82
I00
sS'hear'
p83
I01
sS'talk'
p84
I01
sS'ban'
p85
I01
sS'voice'
p86
I01
sS'kick'
p87
I01
sS'arma'
p88
I01
sssS'ban'
p89
NsS'armageddon'
p90
(dp91
S'whitelist'
p92
(lp93
S'unaffiliated/nbaztec'
p94
aS'krow\\.me'
p95
aS'85\\.17\\.214\\.157'
p96
aS'unaffiliated/hsr'
p97
aS'204\\.176[.\\d]+'
p98
aS'59\\.178[.\\d]+'
p99
aS'unaffiliated/ico666'
p100
aS'unaffiliated/lfc-fan/x-9923423'
p101
aS'unaffiliated/thatsashok'
p102
aS'services'
p103
assS'enforce'
p104
(dp105
S'rules'
p106
(lp107
ssS'kick'
p108
NsS'op'
p109
Ns.(dp110
g44
I01
s.